
Baremetal_MPU.elf:     file format elf32-littlearm

Sections:
Idx Name          Size      VMA       LMA       File off  Algn
  0 .isr_vector   00000188  08000000  08000000  00001000  2**0
                  CONTENTS, ALLOC, LOAD, READONLY, DATA
  1 .text         00000660  08000188  08000188  00001188  2**2
                  CONTENTS, ALLOC, LOAD, READONLY, CODE
  2 .rodata       000003c8  080007e8  080007e8  000017e8  2**2
                  CONTENTS, ALLOC, LOAD, READONLY, DATA
  3 .ARM.extab    00000000  08000bb0  08000bb0  00001bb8  2**0
                  CONTENTS, READONLY
  4 .ARM          00000000  08000bb0  08000bb0  00001bb8  2**0
                  CONTENTS, READONLY
  5 .preinit_array 00000000  08000bb0  08000bb8  00001bb8  2**0
                  CONTENTS, ALLOC, LOAD, DATA
  6 .init_array   00000004  08000bb0  08000bb0  00001bb0  2**2
                  CONTENTS, ALLOC, LOAD, READONLY, DATA
  7 .fini_array   00000004  08000bb4  08000bb4  00001bb4  2**2
                  CONTENTS, ALLOC, LOAD, READONLY, DATA
  8 .data         00000000  20000000  20000000  00001bb8  2**0
                  CONTENTS, ALLOC, LOAD, DATA
  9 .ccmram       00000000  10000000  10000000  00001bb8  2**0
                  CONTENTS
 10 .bss          00000038  20000000  20000000  00002000  2**2
                  ALLOC
 11 ._user_heap_stack 00000600  20000038  20000038  00002000  2**0
                  ALLOC
 12 .ARM.attributes 00000030  00000000  00000000  00001bb8  2**0
                  CONTENTS, READONLY
 13 .debug_info   00000705  00000000  00000000  00001be8  2**0
                  CONTENTS, READONLY, DEBUGGING, OCTETS
 14 .debug_abbrev 0000024e  00000000  00000000  000022ed  2**0
                  CONTENTS, READONLY, DEBUGGING, OCTETS
 15 .debug_aranges 00000108  00000000  00000000  00002540  2**3
                  CONTENTS, READONLY, DEBUGGING, OCTETS
 16 .debug_rnglists 000000c1  00000000  00000000  00002648  2**0
                  CONTENTS, READONLY, DEBUGGING, OCTETS
 17 .debug_macro  0000110b  00000000  00000000  00002709  2**0
                  CONTENTS, READONLY, DEBUGGING, OCTETS
 18 .debug_line   00000909  00000000  00000000  00003814  2**0
                  CONTENTS, READONLY, DEBUGGING, OCTETS
 19 .debug_str    00004506  00000000  00000000  0000411d  2**0
                  CONTENTS, READONLY, DEBUGGING, OCTETS
 20 .comment      00000043  00000000  00000000  00008623  2**0
                  CONTENTS, READONLY
 21 .debug_frame  00000330  00000000  00000000  00008668  2**2
                  CONTENTS, READONLY, DEBUGGING, OCTETS
 22 .debug_line_str 00000066  00000000  00000000  00008998  2**0
                  CONTENTS, READONLY, DEBUGGING, OCTETS

Disassembly of section .text:

08000188 <__do_global_dtors_aux>:
 8000188:	b510      	push	{r4, lr}
 800018a:	4c05      	ldr	r4, [pc, #20]	@ (80001a0 <__do_global_dtors_aux+0x18>)
 800018c:	7823      	ldrb	r3, [r4, #0]
 800018e:	b933      	cbnz	r3, 800019e <__do_global_dtors_aux+0x16>
 8000190:	4b04      	ldr	r3, [pc, #16]	@ (80001a4 <__do_global_dtors_aux+0x1c>)
 8000192:	b113      	cbz	r3, 800019a <__do_global_dtors_aux+0x12>
 8000194:	4804      	ldr	r0, [pc, #16]	@ (80001a8 <__do_global_dtors_aux+0x20>)
 8000196:	f3af 8000 	nop.w
 800019a:	2301      	movs	r3, #1
 800019c:	7023      	strb	r3, [r4, #0]
 800019e:	bd10      	pop	{r4, pc}
 80001a0:	20000000 	.word	0x20000000
 80001a4:	00000000 	.word	0x00000000
 80001a8:	080007d0 	.word	0x080007d0

080001ac <frame_dummy>:
 80001ac:	b508      	push	{r3, lr}
 80001ae:	4b03      	ldr	r3, [pc, #12]	@ (80001bc <frame_dummy+0x10>)
 80001b0:	b11b      	cbz	r3, 80001ba <frame_dummy+0xe>
 80001b2:	4903      	ldr	r1, [pc, #12]	@ (80001c0 <frame_dummy+0x14>)
 80001b4:	4803      	ldr	r0, [pc, #12]	@ (80001c4 <frame_dummy+0x18>)
 80001b6:	f3af 8000 	nop.w
 80001ba:	bd08      	pop	{r3, pc}
 80001bc:	00000000 	.word	0x00000000
 80001c0:	20000004 	.word	0x20000004
 80001c4:	080007d0 	.word	0x080007d0

080001c8 <DSB>:
 *  ISB — Instruction Synchronisation Barrier
 *        Flushes the CPU pipeline — ensures no stale prefetched instructions
 *        execute after a context-changing operation (MPU enable, VTOR write).
 *        Required: after MPU enable.
 * =========================================================================== */
static inline void DSB(void) { __asm volatile ("dsb" ::: "memory"); }
 80001c8:	b480      	push	{r7}
 80001ca:	af00      	add	r7, sp, #0
 80001cc:	f3bf 8f4f 	dsb	sy
 80001d0:	bf00      	nop
 80001d2:	46bd      	mov	sp, r7
 80001d4:	f85d 7b04 	ldr.w	r7, [sp], #4
 80001d8:	4770      	bx	lr

080001da <ISB>:
static inline void ISB(void) { __asm volatile ("isb" ::: "memory"); }
 80001da:	b480      	push	{r7}
 80001dc:	af00      	add	r7, sp, #0
 80001de:	f3bf 8f6f 	isb	sy
 80001e2:	bf00      	nop
 80001e4:	46bd      	mov	sp, r7
 80001e6:	f85d 7b04 	ldr.w	r7, [sp], #4
 80001ea:	4770      	bx	lr

080001ec <MPU_ConfigRegion>:
                      uint32_t baseAddr,
                      uint32_t sizeField,
                      uint32_t memType,
                      uint32_t accessPerm,
                      uint32_t executeNever)
{
 80001ec:	b480      	push	{r7}
 80001ee:	b085      	sub	sp, #20
 80001f0:	af00      	add	r7, sp, #0
 80001f2:	60f8      	str	r0, [r7, #12]
 80001f4:	60b9      	str	r1, [r7, #8]
 80001f6:	607a      	str	r2, [r7, #4]
 80001f8:	603b      	str	r3, [r7, #0]
    MPU->RNR  = region;
 80001fa:	4a0d      	ldr	r2, [pc, #52]	@ (8000230 <MPU_ConfigRegion+0x44>)
 80001fc:	68fb      	ldr	r3, [r7, #12]
 80001fe:	6093      	str	r3, [r2, #8]
    MPU->RBAR = baseAddr;
 8000200:	4a0b      	ldr	r2, [pc, #44]	@ (8000230 <MPU_ConfigRegion+0x44>)
 8000202:	68bb      	ldr	r3, [r7, #8]
 8000204:	60d3      	str	r3, [r2, #12]
    MPU->RASR = (1U            << MPU_RASR_ENABLE_Pos)
              | (sizeField     << MPU_RASR_SIZE_Pos)
 8000206:	687b      	ldr	r3, [r7, #4]
 8000208:	005a      	lsls	r2, r3, #1
              | (memType       << MPU_RASR_MEMTYPE_Pos)
 800020a:	683b      	ldr	r3, [r7, #0]
 800020c:	041b      	lsls	r3, r3, #16
 800020e:	431a      	orrs	r2, r3
              | (accessPerm    << MPU_RASR_AP_Pos)
 8000210:	69bb      	ldr	r3, [r7, #24]
 8000212:	061b      	lsls	r3, r3, #24
 8000214:	431a      	orrs	r2, r3
              | (executeNever  << MPU_RASR_XN_Pos);
 8000216:	69fb      	ldr	r3, [r7, #28]
 8000218:	071b      	lsls	r3, r3, #28
 800021a:	4313      	orrs	r3, r2
    MPU->RASR = (1U            << MPU_RASR_ENABLE_Pos)
 800021c:	4a04      	ldr	r2, [pc, #16]	@ (8000230 <MPU_ConfigRegion+0x44>)
              | (executeNever  << MPU_RASR_XN_Pos);
 800021e:	f043 0301 	orr.w	r3, r3, #1
    MPU->RASR = (1U            << MPU_RASR_ENABLE_Pos)
 8000222:	6113      	str	r3, [r2, #16]
}
 8000224:	bf00      	nop
 8000226:	3714      	adds	r7, #20
 8000228:	46bd      	mov	sp, r7
 800022a:	f85d 7b04 	ldr.w	r7, [sp], #4
 800022e:	4770      	bx	lr
 8000230:	e000ed90 	.word	0xe000ed90

08000234 <MPU_Init>:
 *    5.  ISB  — flush CPU pipeline
 *    6.  Enable MPU
 *    7.  DSB + ISB — MPU config visible to all subsequent accesses
 * =========================================================================== */
void MPU_Init(void)
{
 8000234:	b580      	push	{r7, lr}
 8000236:	b082      	sub	sp, #8
 8000238:	af02      	add	r7, sp, #8
    /* 1. Disable MPU before reconfiguring */
    MPU->CTRL = 0;
 800023a:	4b24      	ldr	r3, [pc, #144]	@ (80002cc <MPU_Init+0x98>)
 800023c:	2200      	movs	r2, #0
 800023e:	605a      	str	r2, [r3, #4]
     *  Region 0  Flash 1 MB @ 0x08000000
     *    MEM_NORMAL_WT  — Write-Through, no write-allocate (suitable for Flash)
     *    AP_READ_ONLY   — any write attempt → MemManage DACCVIOL
     *    XN=0           — allow instruction fetch (code lives here)
     *    SIZE=19        — 2^20 = 1 MB  ✓ 0x08000000 aligned                   */
    MPU_ConfigRegion(0, 0x08000000U, 19, MEM_NORMAL_WT,       AP_READ_ONLY, 0);
 8000240:	2300      	movs	r3, #0
 8000242:	9301      	str	r3, [sp, #4]
 8000244:	2306      	movs	r3, #6
 8000246:	9300      	str	r3, [sp, #0]
 8000248:	2302      	movs	r3, #2
 800024a:	2213      	movs	r2, #19
 800024c:	f04f 6100 	mov.w	r1, #134217728	@ 0x8000000
 8000250:	2000      	movs	r0, #0
 8000252:	f7ff ffcb 	bl	80001ec <MPU_ConfigRegion>
     *    MEM_NORMAL_WB_WA — Write-Back + Write-Allocate, Shareable
     *    S=1              — DMA can also access SRAM → must be Shareable
     *    AP_FULL_RW       — privileged and unprivileged read/write
     *    XN=1             — prevent code execution from RAM (anti-ROP)
     *    SIZE=16          — 2^17 = 128 KB  ✓ 0x20000000 aligned               */
    MPU_ConfigRegion(1, 0x20000000U, 16, MEM_NORMAL_WB_WA,    AP_FULL_RW,   1);
 8000256:	2301      	movs	r3, #1
 8000258:	9301      	str	r3, [sp, #4]
 800025a:	2303      	movs	r3, #3
 800025c:	9300      	str	r3, [sp, #0]
 800025e:	230f      	movs	r3, #15
 8000260:	2210      	movs	r2, #16
 8000262:	f04f 5100 	mov.w	r1, #536870912	@ 0x20000000
 8000266:	2001      	movs	r0, #1
 8000268:	f7ff ffc0 	bl	80001ec <MPU_ConfigRegion>
     *                        register write), but ordering is preserved vs other
     *                        device accesses on the same bus.
     *    AP_PRIV_RW        — privileged only; unprivileged cannot touch hardware
     *    XN=1              — no instruction fetch from peripheral space
     *    SIZE=28           — 2^29 = 512 MB covers APB1, APB2, AHB1, AHB2      */
    MPU_ConfigRegion(2, 0x40000000U, 28, MEM_DEVICE_SHARED,   AP_PRIV_RW,   1);
 800026c:	2301      	movs	r3, #1
 800026e:	9301      	str	r3, [sp, #4]
 8000270:	2301      	movs	r3, #1
 8000272:	9300      	str	r3, [sp, #0]
 8000274:	2305      	movs	r3, #5
 8000276:	221c      	movs	r2, #28
 8000278:	f04f 4180 	mov.w	r1, #1073741824	@ 0x40000000
 800027c:	2002      	movs	r0, #2
 800027e:	f7ff ffb5 	bl	80001ec <MPU_ConfigRegion>
     *    XN=1                  — no instruction fetch
     *    SIZE=19               — 2^20 = 1 MB  ✓ 0xE0000000 aligned
     *
     *    CRITICAL: this region is mandatory when PRIVDEFENA=0.
     *    Without it, fault handlers read SCB registers → second fault → Lockup. */
    MPU_ConfigRegion(3, 0xE0000000U, 19, MEM_STRONGLY_ORDERED, AP_PRIV_RW,  1);
 8000282:	2301      	movs	r3, #1
 8000284:	9301      	str	r3, [sp, #4]
 8000286:	2301      	movs	r3, #1
 8000288:	9300      	str	r3, [sp, #0]
 800028a:	2300      	movs	r3, #0
 800028c:	2213      	movs	r2, #19
 800028e:	f04f 4160 	mov.w	r1, #3758096384	@ 0xe0000000
 8000292:	2003      	movs	r0, #3
 8000294:	f7ff ffaa 	bl	80001ec <MPU_ConfigRegion>
     *                     silent return of 0.  Always safe to enable.
     *    UNALIGN_TRP=0  — leave off by default. Cortex-M4 handles unaligned
     *                     word/halfword accesses transparently (two bus cycles).
     *                     Enable during development to find alignment bugs,
     *                     then comment out before production.                  */
    SCB->CCR |= CCR_DIV_0_TRP;
 8000298:	4b0d      	ldr	r3, [pc, #52]	@ (80002d0 <MPU_Init+0x9c>)
 800029a:	695b      	ldr	r3, [r3, #20]
 800029c:	4a0c      	ldr	r2, [pc, #48]	@ (80002d0 <MPU_Init+0x9c>)
 800029e:	f043 0310 	orr.w	r3, r3, #16
 80002a2:	6153      	str	r3, [r2, #20]
    /* SCB->CCR |= CCR_UNALIGN_TRP; */

    /* 3b. Enable all three configurable fault handlers.
     *    If any bit is 0, that fault class escalates to HardFault (FORCED=1)
     *    and you lose the specific CFSR sub-type information.                  */
    SCB->SHCSR |= SHCSR_MEMFAULTENA
 80002a4:	4b0a      	ldr	r3, [pc, #40]	@ (80002d0 <MPU_Init+0x9c>)
 80002a6:	6a5b      	ldr	r3, [r3, #36]	@ 0x24
 80002a8:	4a09      	ldr	r2, [pc, #36]	@ (80002d0 <MPU_Init+0x9c>)
 80002aa:	f443 23e0 	orr.w	r3, r3, #458752	@ 0x70000
 80002ae:	6253      	str	r3, [r2, #36]	@ 0x24
               |  SHCSR_BUSFAULTENA
               |  SHCSR_USGFAULTENA;

    /* 4+5. Flush write buffer and pipeline */
    DSB();
 80002b0:	f7ff ff8a 	bl	80001c8 <DSB>
    ISB();
 80002b4:	f7ff ff91 	bl	80001da <ISB>
     *    explicitly declared in a region (fault handlers need Region 3 PPB).
     *
     *    HFNMIENA=0  — HardFault/NMI handlers bypass the MPU (development
     *    setting). Set HFNMIENA=1 in production once MPU config is verified
     *    and all handler stacks are covered by accessible regions.             */
    MPU->CTRL = MPU_CTRL_ENABLE | MPU_CTRL_PRIVDEFENA;
 80002b8:	4b04      	ldr	r3, [pc, #16]	@ (80002cc <MPU_Init+0x98>)
 80002ba:	2205      	movs	r2, #5
 80002bc:	605a      	str	r2, [r3, #4]

    /* 7. MPU active from this point forward */
    DSB();
 80002be:	f7ff ff83 	bl	80001c8 <DSB>
    ISB();
 80002c2:	f7ff ff8a 	bl	80001da <ISB>
}
 80002c6:	bf00      	nop
 80002c8:	46bd      	mov	sp, r7
 80002ca:	bd80      	pop	{r7, pc}
 80002cc:	e000ed90 	.word	0xe000ed90
 80002d0:	e000ed00 	.word	0xe000ed00

080002d4 <MemManage_Handler_C>:
 *  Naked trampoline: reads EXC_RETURN bit 2 to determine which stack
 *  (MSP = Handler/privileged, PSP = Thread/task) held the frame,
 *  then passes the frame pointer to the C handler as the first argument (r0).
 * =========================================================================== */
void MemManage_Handler_C(ExceptionFrame_t *frame)
{
 80002d4:	b480      	push	{r7}
 80002d6:	b085      	sub	sp, #20
 80002d8:	af00      	add	r7, sp, #0
 80002da:	6078      	str	r0, [r7, #4]
    uint32_t cfsr    = SCB->CFSR;
 80002dc:	4b3f      	ldr	r3, [pc, #252]	@ (80003dc <MemManage_Handler_C+0x108>)
 80002de:	6a9b      	ldr	r3, [r3, #40]	@ 0x28
 80002e0:	60fb      	str	r3, [r7, #12]
    g_fault.cfsr     = cfsr;
 80002e2:	4a3f      	ldr	r2, [pc, #252]	@ (80003e0 <MemManage_Handler_C+0x10c>)
 80002e4:	68fb      	ldr	r3, [r7, #12]
 80002e6:	6013      	str	r3, [r2, #0]
    g_fault.hfsr     = SCB->HFSR;
 80002e8:	4b3c      	ldr	r3, [pc, #240]	@ (80003dc <MemManage_Handler_C+0x108>)
 80002ea:	6adb      	ldr	r3, [r3, #44]	@ 0x2c
 80002ec:	4a3c      	ldr	r2, [pc, #240]	@ (80003e0 <MemManage_Handler_C+0x10c>)
 80002ee:	6053      	str	r3, [r2, #4]
    g_fault.fault_pc = frame->pc;
 80002f0:	687b      	ldr	r3, [r7, #4]
 80002f2:	699b      	ldr	r3, [r3, #24]
 80002f4:	4a3a      	ldr	r2, [pc, #232]	@ (80003e0 <MemManage_Handler_C+0x10c>)
 80002f6:	6113      	str	r3, [r2, #16]
    g_fault.fault_lr = frame->lr;
 80002f8:	687b      	ldr	r3, [r7, #4]
 80002fa:	695b      	ldr	r3, [r3, #20]
 80002fc:	4a38      	ldr	r2, [pc, #224]	@ (80003e0 <MemManage_Handler_C+0x10c>)
 80002fe:	6153      	str	r3, [r2, #20]

    if (cfsr & CFSR_IACCVIOL)
 8000300:	68fb      	ldr	r3, [r7, #12]
 8000302:	f003 0301 	and.w	r3, r3, #1
 8000306:	2b00      	cmp	r3, #0
 8000308:	d00b      	beq.n	8000322 <MemManage_Handler_C+0x4e>
    {
        /* Instruction fetch from a region with XN=1 or AP=no-access.
         * MMFAR is NOT updated for IACCVIOL — fault_pc is the bad address. */
        g_fault.type  = "MemManage: instruction access violation (IACCVIOL)";
 800030a:	4b35      	ldr	r3, [pc, #212]	@ (80003e0 <MemManage_Handler_C+0x10c>)
 800030c:	4a35      	ldr	r2, [pc, #212]	@ (80003e4 <MemManage_Handler_C+0x110>)
 800030e:	619a      	str	r2, [r3, #24]
        g_fault.mmfar = frame->pc;
 8000310:	687b      	ldr	r3, [r7, #4]
 8000312:	699b      	ldr	r3, [r3, #24]
 8000314:	4a32      	ldr	r2, [pc, #200]	@ (80003e0 <MemManage_Handler_C+0x10c>)
 8000316:	6093      	str	r3, [r2, #8]
        g_fault.bfar  = 0xFFFFFFFFU;
 8000318:	4b31      	ldr	r3, [pc, #196]	@ (80003e0 <MemManage_Handler_C+0x10c>)
 800031a:	f04f 32ff 	mov.w	r2, #4294967295	@ 0xffffffff
 800031e:	60da      	str	r2, [r3, #12]
 8000320:	e056      	b.n	80003d0 <MemManage_Handler_C+0xfc>
    }
    else if (cfsr & CFSR_DACCVIOL)
 8000322:	68fb      	ldr	r3, [r7, #12]
 8000324:	f003 0302 	and.w	r3, r3, #2
 8000328:	2b00      	cmp	r3, #0
 800032a:	d013      	beq.n	8000354 <MemManage_Handler_C+0x80>
    {
        /* Data load/store to an address denied by MPU access permissions.
         * MMFAR is valid when MMARVALID=1 — read it before it can be
         * overwritten by a nested exception. */
        g_fault.type  = "MemManage: data access violation (DACCVIOL)";
 800032c:	4b2c      	ldr	r3, [pc, #176]	@ (80003e0 <MemManage_Handler_C+0x10c>)
 800032e:	4a2e      	ldr	r2, [pc, #184]	@ (80003e8 <MemManage_Handler_C+0x114>)
 8000330:	619a      	str	r2, [r3, #24]
        g_fault.mmfar = (cfsr & CFSR_MMARVALID) ? SCB->MMFAR : 0xFFFFFFFFU;
 8000332:	68fb      	ldr	r3, [r7, #12]
 8000334:	f003 0380 	and.w	r3, r3, #128	@ 0x80
 8000338:	2b00      	cmp	r3, #0
 800033a:	d002      	beq.n	8000342 <MemManage_Handler_C+0x6e>
 800033c:	4b27      	ldr	r3, [pc, #156]	@ (80003dc <MemManage_Handler_C+0x108>)
 800033e:	6b5b      	ldr	r3, [r3, #52]	@ 0x34
 8000340:	e001      	b.n	8000346 <MemManage_Handler_C+0x72>
 8000342:	f04f 33ff 	mov.w	r3, #4294967295	@ 0xffffffff
 8000346:	4a26      	ldr	r2, [pc, #152]	@ (80003e0 <MemManage_Handler_C+0x10c>)
 8000348:	6093      	str	r3, [r2, #8]
        g_fault.bfar  = 0xFFFFFFFFU;
 800034a:	4b25      	ldr	r3, [pc, #148]	@ (80003e0 <MemManage_Handler_C+0x10c>)
 800034c:	f04f 32ff 	mov.w	r2, #4294967295	@ 0xffffffff
 8000350:	60da      	str	r2, [r3, #12]
 8000352:	e03d      	b.n	80003d0 <MemManage_Handler_C+0xfc>
    }
    else if (cfsr & CFSR_MUNSTKERR)
 8000354:	68fb      	ldr	r3, [r7, #12]
 8000356:	f003 0308 	and.w	r3, r3, #8
 800035a:	2b00      	cmp	r3, #0
 800035c:	d00b      	beq.n	8000376 <MemManage_Handler_C+0xa2>
    {
        /* MPU fault while restoring stacked registers on exception return.
         * The exception stack itself violates an MPU region. */
        g_fault.type  = "MemManage: unstacking error (MUNSTKERR)";
 800035e:	4b20      	ldr	r3, [pc, #128]	@ (80003e0 <MemManage_Handler_C+0x10c>)
 8000360:	4a22      	ldr	r2, [pc, #136]	@ (80003ec <MemManage_Handler_C+0x118>)
 8000362:	619a      	str	r2, [r3, #24]
        g_fault.mmfar = 0xFFFFFFFFU;
 8000364:	4b1e      	ldr	r3, [pc, #120]	@ (80003e0 <MemManage_Handler_C+0x10c>)
 8000366:	f04f 32ff 	mov.w	r2, #4294967295	@ 0xffffffff
 800036a:	609a      	str	r2, [r3, #8]
        g_fault.bfar  = 0xFFFFFFFFU;
 800036c:	4b1c      	ldr	r3, [pc, #112]	@ (80003e0 <MemManage_Handler_C+0x10c>)
 800036e:	f04f 32ff 	mov.w	r2, #4294967295	@ 0xffffffff
 8000372:	60da      	str	r2, [r3, #12]
 8000374:	e02c      	b.n	80003d0 <MemManage_Handler_C+0xfc>
    }
    else if (cfsr & CFSR_MSTKERR)
 8000376:	68fb      	ldr	r3, [r7, #12]
 8000378:	f003 0310 	and.w	r3, r3, #16
 800037c:	2b00      	cmp	r3, #0
 800037e:	d00b      	beq.n	8000398 <MemManage_Handler_C+0xc4>
    {
        /* MPU fault while pushing registers on exception entry.
         * Stack pointer is in a no-access region — likely stack overflow. */
        g_fault.type  = "MemManage: stacking error (MSTKERR)";
 8000380:	4b17      	ldr	r3, [pc, #92]	@ (80003e0 <MemManage_Handler_C+0x10c>)
 8000382:	4a1b      	ldr	r2, [pc, #108]	@ (80003f0 <MemManage_Handler_C+0x11c>)
 8000384:	619a      	str	r2, [r3, #24]
        g_fault.mmfar = 0xFFFFFFFFU;
 8000386:	4b16      	ldr	r3, [pc, #88]	@ (80003e0 <MemManage_Handler_C+0x10c>)
 8000388:	f04f 32ff 	mov.w	r2, #4294967295	@ 0xffffffff
 800038c:	609a      	str	r2, [r3, #8]
        g_fault.bfar  = 0xFFFFFFFFU;
 800038e:	4b14      	ldr	r3, [pc, #80]	@ (80003e0 <MemManage_Handler_C+0x10c>)
 8000390:	f04f 32ff 	mov.w	r2, #4294967295	@ 0xffffffff
 8000394:	60da      	str	r2, [r3, #12]
 8000396:	e01b      	b.n	80003d0 <MemManage_Handler_C+0xfc>
    }
    else if (cfsr & CFSR_MLSPERR)
 8000398:	68fb      	ldr	r3, [r7, #12]
 800039a:	f003 0320 	and.w	r3, r3, #32
 800039e:	2b00      	cmp	r3, #0
 80003a0:	d00b      	beq.n	80003ba <MemManage_Handler_C+0xe6>
    {
        /* MPU fault during FP register lazy stacking. */
        g_fault.type  = "MemManage: FP lazy stacking error (MLSPERR)";
 80003a2:	4b0f      	ldr	r3, [pc, #60]	@ (80003e0 <MemManage_Handler_C+0x10c>)
 80003a4:	4a13      	ldr	r2, [pc, #76]	@ (80003f4 <MemManage_Handler_C+0x120>)
 80003a6:	619a      	str	r2, [r3, #24]
        g_fault.mmfar = 0xFFFFFFFFU;
 80003a8:	4b0d      	ldr	r3, [pc, #52]	@ (80003e0 <MemManage_Handler_C+0x10c>)
 80003aa:	f04f 32ff 	mov.w	r2, #4294967295	@ 0xffffffff
 80003ae:	609a      	str	r2, [r3, #8]
        g_fault.bfar  = 0xFFFFFFFFU;
 80003b0:	4b0b      	ldr	r3, [pc, #44]	@ (80003e0 <MemManage_Handler_C+0x10c>)
 80003b2:	f04f 32ff 	mov.w	r2, #4294967295	@ 0xffffffff
 80003b6:	60da      	str	r2, [r3, #12]
 80003b8:	e00a      	b.n	80003d0 <MemManage_Handler_C+0xfc>
    }
    else
    {
        g_fault.type  = "MemManage: unknown";
 80003ba:	4b09      	ldr	r3, [pc, #36]	@ (80003e0 <MemManage_Handler_C+0x10c>)
 80003bc:	4a0e      	ldr	r2, [pc, #56]	@ (80003f8 <MemManage_Handler_C+0x124>)
 80003be:	619a      	str	r2, [r3, #24]
        g_fault.mmfar = 0xFFFFFFFFU;
 80003c0:	4b07      	ldr	r3, [pc, #28]	@ (80003e0 <MemManage_Handler_C+0x10c>)
 80003c2:	f04f 32ff 	mov.w	r2, #4294967295	@ 0xffffffff
 80003c6:	609a      	str	r2, [r3, #8]
        g_fault.bfar  = 0xFFFFFFFFU;
 80003c8:	4b05      	ldr	r3, [pc, #20]	@ (80003e0 <MemManage_Handler_C+0x10c>)
 80003ca:	f04f 32ff 	mov.w	r2, #4294967295	@ 0xffffffff
 80003ce:	60da      	str	r2, [r3, #12]
    }

    SCB->CFSR = cfsr;   /* write 1 to clear — otherwise fault fires again */
 80003d0:	4a02      	ldr	r2, [pc, #8]	@ (80003dc <MemManage_Handler_C+0x108>)
 80003d2:	68fb      	ldr	r3, [r7, #12]
 80003d4:	6293      	str	r3, [r2, #40]	@ 0x28
    while(1);           /* breakpoint here, inspect g_fault               */
 80003d6:	bf00      	nop
 80003d8:	e7fd      	b.n	80003d6 <MemManage_Handler_C+0x102>
 80003da:	bf00      	nop
 80003dc:	e000ed00 	.word	0xe000ed00
 80003e0:	2000001c 	.word	0x2000001c
 80003e4:	080007e8 	.word	0x080007e8
 80003e8:	0800081c 	.word	0x0800081c
 80003ec:	08000848 	.word	0x08000848
 80003f0:	08000870 	.word	0x08000870
 80003f4:	08000894 	.word	0x08000894
 80003f8:	080008c0 	.word	0x080008c0

080003fc <MemManage_Handler>:
}

__attribute__((naked))
void MemManage_Handler(void)
{
    __asm volatile (
 80003fc:	f01e 0f04 	tst.w	lr, #4
 8000400:	bf0c      	ite	eq
 8000402:	f3ef 8008 	mrseq	r0, MSP
 8000406:	f3ef 8009 	mrsne	r0, PSP
 800040a:	f7ff bf63 	b.w	80002d4 <MemManage_Handler_C>
        "ite   eq                  \n"
        "mrseq r0, msp             \n"   /* r0 → frame on MSP */
        "mrsne r0, psp             \n"   /* r0 → frame on PSP */
        "b     MemManage_Handler_C \n"
    );
}
 800040e:	bf00      	nop

08000410 <BusFault_Handler_C>:
 *  itself returns an error (SLVERR or DECERR from a peripheral or invalid
 *  address). PRECISERR gives a valid BFAR; IMPRECISERR does not — add a
 *  DSB() after the suspect write to force a synchronous (precise) fault.
 * =========================================================================== */
void BusFault_Handler_C(ExceptionFrame_t *frame)
{
 8000410:	b480      	push	{r7}
 8000412:	b085      	sub	sp, #20
 8000414:	af00      	add	r7, sp, #0
 8000416:	6078      	str	r0, [r7, #4]
    uint32_t cfsr    = SCB->CFSR;
 8000418:	4b35      	ldr	r3, [pc, #212]	@ (80004f0 <BusFault_Handler_C+0xe0>)
 800041a:	6a9b      	ldr	r3, [r3, #40]	@ 0x28
 800041c:	60fb      	str	r3, [r7, #12]
    g_fault.cfsr     = cfsr;
 800041e:	4a35      	ldr	r2, [pc, #212]	@ (80004f4 <BusFault_Handler_C+0xe4>)
 8000420:	68fb      	ldr	r3, [r7, #12]
 8000422:	6013      	str	r3, [r2, #0]
    g_fault.hfsr     = SCB->HFSR;
 8000424:	4b32      	ldr	r3, [pc, #200]	@ (80004f0 <BusFault_Handler_C+0xe0>)
 8000426:	6adb      	ldr	r3, [r3, #44]	@ 0x2c
 8000428:	4a32      	ldr	r2, [pc, #200]	@ (80004f4 <BusFault_Handler_C+0xe4>)
 800042a:	6053      	str	r3, [r2, #4]
    g_fault.fault_pc = frame->pc;
 800042c:	687b      	ldr	r3, [r7, #4]
 800042e:	699b      	ldr	r3, [r3, #24]
 8000430:	4a30      	ldr	r2, [pc, #192]	@ (80004f4 <BusFault_Handler_C+0xe4>)
 8000432:	6113      	str	r3, [r2, #16]
    g_fault.fault_lr = frame->lr;
 8000434:	687b      	ldr	r3, [r7, #4]
 8000436:	695b      	ldr	r3, [r3, #20]
 8000438:	4a2e      	ldr	r2, [pc, #184]	@ (80004f4 <BusFault_Handler_C+0xe4>)
 800043a:	6153      	str	r3, [r2, #20]
    g_fault.mmfar    = 0xFFFFFFFFU;
 800043c:	4b2d      	ldr	r3, [pc, #180]	@ (80004f4 <BusFault_Handler_C+0xe4>)
 800043e:	f04f 32ff 	mov.w	r2, #4294967295	@ 0xffffffff
 8000442:	609a      	str	r2, [r3, #8]

    if (cfsr & CFSR_IBUSERR)
 8000444:	68fb      	ldr	r3, [r7, #12]
 8000446:	f403 7380 	and.w	r3, r3, #256	@ 0x100
 800044a:	2b00      	cmp	r3, #0
 800044c:	d007      	beq.n	800045e <BusFault_Handler_C+0x4e>
    {
        /* Instruction fetch returned a bus error.
         * fault_pc = the address the CPU tried to fetch from. */
        g_fault.type = "BusFault: instruction bus error (IBUSERR)";
 800044e:	4b29      	ldr	r3, [pc, #164]	@ (80004f4 <BusFault_Handler_C+0xe4>)
 8000450:	4a29      	ldr	r2, [pc, #164]	@ (80004f8 <BusFault_Handler_C+0xe8>)
 8000452:	619a      	str	r2, [r3, #24]
        g_fault.bfar = frame->pc;
 8000454:	687b      	ldr	r3, [r7, #4]
 8000456:	699b      	ldr	r3, [r3, #24]
 8000458:	4a26      	ldr	r2, [pc, #152]	@ (80004f4 <BusFault_Handler_C+0xe4>)
 800045a:	60d3      	str	r3, [r2, #12]
 800045c:	e042      	b.n	80004e4 <BusFault_Handler_C+0xd4>
    }
    else if (cfsr & CFSR_PRECISERR)
 800045e:	68fb      	ldr	r3, [r7, #12]
 8000460:	f403 7300 	and.w	r3, r3, #512	@ 0x200
 8000464:	2b00      	cmp	r3, #0
 8000466:	d00f      	beq.n	8000488 <BusFault_Handler_C+0x78>
    {
        /* Synchronous data access bus error — CPU stalled for the response.
         * BFAR holds the exact faulting address when BFARVALID=1.
         * Read BFAR before returning; a nested exception may invalidate it. */
        g_fault.type = "BusFault: precise data bus error (PRECISERR)";
 8000468:	4b22      	ldr	r3, [pc, #136]	@ (80004f4 <BusFault_Handler_C+0xe4>)
 800046a:	4a24      	ldr	r2, [pc, #144]	@ (80004fc <BusFault_Handler_C+0xec>)
 800046c:	619a      	str	r2, [r3, #24]
        g_fault.bfar = (cfsr & CFSR_BFARVALID) ? SCB->BFAR : 0xFFFFFFFFU;
 800046e:	68fb      	ldr	r3, [r7, #12]
 8000470:	f403 4300 	and.w	r3, r3, #32768	@ 0x8000
 8000474:	2b00      	cmp	r3, #0
 8000476:	d002      	beq.n	800047e <BusFault_Handler_C+0x6e>
 8000478:	4b1d      	ldr	r3, [pc, #116]	@ (80004f0 <BusFault_Handler_C+0xe0>)
 800047a:	6b9b      	ldr	r3, [r3, #56]	@ 0x38
 800047c:	e001      	b.n	8000482 <BusFault_Handler_C+0x72>
 800047e:	f04f 33ff 	mov.w	r3, #4294967295	@ 0xffffffff
 8000482:	4a1c      	ldr	r2, [pc, #112]	@ (80004f4 <BusFault_Handler_C+0xe4>)
 8000484:	60d3      	str	r3, [r2, #12]
 8000486:	e02d      	b.n	80004e4 <BusFault_Handler_C+0xd4>
    }
    else if (cfsr & CFSR_IMPRECISERR)
 8000488:	68fb      	ldr	r3, [r7, #12]
 800048a:	f403 6380 	and.w	r3, r3, #1024	@ 0x400
 800048e:	2b00      	cmp	r3, #0
 8000490:	d007      	beq.n	80004a2 <BusFault_Handler_C+0x92>
    {
        /* Asynchronous write buffer error — CPU had already moved on.
         * BFAR is NOT valid; fault_pc points to a later instruction.
         * To convert to PRECISERR: add DSB() after the suspect write,
         * or map the region as Device (non-bufferable) in the MPU. */
        g_fault.type = "BusFault: imprecise data bus error — add DSB() (IMPRECISERR)";
 8000492:	4b18      	ldr	r3, [pc, #96]	@ (80004f4 <BusFault_Handler_C+0xe4>)
 8000494:	4a1a      	ldr	r2, [pc, #104]	@ (8000500 <BusFault_Handler_C+0xf0>)
 8000496:	619a      	str	r2, [r3, #24]
        g_fault.bfar = 0xFFFFFFFFU;
 8000498:	4b16      	ldr	r3, [pc, #88]	@ (80004f4 <BusFault_Handler_C+0xe4>)
 800049a:	f04f 32ff 	mov.w	r2, #4294967295	@ 0xffffffff
 800049e:	60da      	str	r2, [r3, #12]
 80004a0:	e020      	b.n	80004e4 <BusFault_Handler_C+0xd4>
    }
    else if (cfsr & CFSR_UNSTKERR)
 80004a2:	68fb      	ldr	r3, [r7, #12]
 80004a4:	f403 6300 	and.w	r3, r3, #2048	@ 0x800
 80004a8:	2b00      	cmp	r3, #0
 80004aa:	d007      	beq.n	80004bc <BusFault_Handler_C+0xac>
    {
        /* Bus error while restoring stacked registers on exception return. */
        g_fault.type = "BusFault: unstacking error (UNSTKERR)";
 80004ac:	4b11      	ldr	r3, [pc, #68]	@ (80004f4 <BusFault_Handler_C+0xe4>)
 80004ae:	4a15      	ldr	r2, [pc, #84]	@ (8000504 <BusFault_Handler_C+0xf4>)
 80004b0:	619a      	str	r2, [r3, #24]
        g_fault.bfar = 0xFFFFFFFFU;
 80004b2:	4b10      	ldr	r3, [pc, #64]	@ (80004f4 <BusFault_Handler_C+0xe4>)
 80004b4:	f04f 32ff 	mov.w	r2, #4294967295	@ 0xffffffff
 80004b8:	60da      	str	r2, [r3, #12]
 80004ba:	e013      	b.n	80004e4 <BusFault_Handler_C+0xd4>
    }
    else if (cfsr & CFSR_STKERR)
 80004bc:	68fb      	ldr	r3, [r7, #12]
 80004be:	f403 5380 	and.w	r3, r3, #4096	@ 0x1000
 80004c2:	2b00      	cmp	r3, #0
 80004c4:	d007      	beq.n	80004d6 <BusFault_Handler_C+0xc6>
    {
        /* Bus error while pushing registers on exception entry. */
        g_fault.type = "BusFault: stacking error (STKERR)";
 80004c6:	4b0b      	ldr	r3, [pc, #44]	@ (80004f4 <BusFault_Handler_C+0xe4>)
 80004c8:	4a0f      	ldr	r2, [pc, #60]	@ (8000508 <BusFault_Handler_C+0xf8>)
 80004ca:	619a      	str	r2, [r3, #24]
        g_fault.bfar = 0xFFFFFFFFU;
 80004cc:	4b09      	ldr	r3, [pc, #36]	@ (80004f4 <BusFault_Handler_C+0xe4>)
 80004ce:	f04f 32ff 	mov.w	r2, #4294967295	@ 0xffffffff
 80004d2:	60da      	str	r2, [r3, #12]
 80004d4:	e006      	b.n	80004e4 <BusFault_Handler_C+0xd4>
    }
    else
    {
        g_fault.type = "BusFault: unknown";
 80004d6:	4b07      	ldr	r3, [pc, #28]	@ (80004f4 <BusFault_Handler_C+0xe4>)
 80004d8:	4a0c      	ldr	r2, [pc, #48]	@ (800050c <BusFault_Handler_C+0xfc>)
 80004da:	619a      	str	r2, [r3, #24]
        g_fault.bfar = 0xFFFFFFFFU;
 80004dc:	4b05      	ldr	r3, [pc, #20]	@ (80004f4 <BusFault_Handler_C+0xe4>)
 80004de:	f04f 32ff 	mov.w	r2, #4294967295	@ 0xffffffff
 80004e2:	60da      	str	r2, [r3, #12]
    }

    SCB->CFSR = cfsr;
 80004e4:	4a02      	ldr	r2, [pc, #8]	@ (80004f0 <BusFault_Handler_C+0xe0>)
 80004e6:	68fb      	ldr	r3, [r7, #12]
 80004e8:	6293      	str	r3, [r2, #40]	@ 0x28
    while(1);
 80004ea:	bf00      	nop
 80004ec:	e7fd      	b.n	80004ea <BusFault_Handler_C+0xda>
 80004ee:	bf00      	nop
 80004f0:	e000ed00 	.word	0xe000ed00
 80004f4:	2000001c 	.word	0x2000001c
 80004f8:	080008d4 	.word	0x080008d4
 80004fc:	08000900 	.word	0x08000900
 8000500:	08000930 	.word	0x08000930
 8000504:	08000970 	.word	0x08000970
 8000508:	08000998 	.word	0x08000998
 800050c:	080009bc 	.word	0x080009bc

08000510 <BusFault_Handler>:
}

__attribute__((naked))
void BusFault_Handler(void)
{
    __asm volatile (
 8000510:	f01e 0f04 	tst.w	lr, #4
 8000514:	bf0c      	ite	eq
 8000516:	f3ef 8008 	mrseq	r0, MSP
 800051a:	f3ef 8009 	mrsne	r0, PSP
 800051e:	f7ff bf77 	b.w	8000410 <BusFault_Handler_C>
        "ite   eq                  \n"
        "mrseq r0, msp             \n"
        "mrsne r0, psp             \n"
        "b     BusFault_Handler_C  \n"
    );
}
 8000522:	bf00      	nop

08000524 <UsageFault_Handler_C>:
 *  CFSR bits [31:16] = UFSR sub-register.
 *  fault_pc = exact instruction that caused the fault in all sub-types.
 *  No dedicated address register — use fault_pc to locate the bad instruction.
 * =========================================================================== */
void UsageFault_Handler_C(ExceptionFrame_t *frame)
{
 8000524:	b480      	push	{r7}
 8000526:	b085      	sub	sp, #20
 8000528:	af00      	add	r7, sp, #0
 800052a:	6078      	str	r0, [r7, #4]
    uint32_t cfsr    = SCB->CFSR;
 800052c:	4b2b      	ldr	r3, [pc, #172]	@ (80005dc <UsageFault_Handler_C+0xb8>)
 800052e:	6a9b      	ldr	r3, [r3, #40]	@ 0x28
 8000530:	60fb      	str	r3, [r7, #12]
    g_fault.cfsr     = cfsr;
 8000532:	4a2b      	ldr	r2, [pc, #172]	@ (80005e0 <UsageFault_Handler_C+0xbc>)
 8000534:	68fb      	ldr	r3, [r7, #12]
 8000536:	6013      	str	r3, [r2, #0]
    g_fault.hfsr     = SCB->HFSR;
 8000538:	4b28      	ldr	r3, [pc, #160]	@ (80005dc <UsageFault_Handler_C+0xb8>)
 800053a:	6adb      	ldr	r3, [r3, #44]	@ 0x2c
 800053c:	4a28      	ldr	r2, [pc, #160]	@ (80005e0 <UsageFault_Handler_C+0xbc>)
 800053e:	6053      	str	r3, [r2, #4]
    g_fault.fault_pc = frame->pc;
 8000540:	687b      	ldr	r3, [r7, #4]
 8000542:	699b      	ldr	r3, [r3, #24]
 8000544:	4a26      	ldr	r2, [pc, #152]	@ (80005e0 <UsageFault_Handler_C+0xbc>)
 8000546:	6113      	str	r3, [r2, #16]
    g_fault.fault_lr = frame->lr;
 8000548:	687b      	ldr	r3, [r7, #4]
 800054a:	695b      	ldr	r3, [r3, #20]
 800054c:	4a24      	ldr	r2, [pc, #144]	@ (80005e0 <UsageFault_Handler_C+0xbc>)
 800054e:	6153      	str	r3, [r2, #20]
    g_fault.mmfar    = 0xFFFFFFFFU;
 8000550:	4b23      	ldr	r3, [pc, #140]	@ (80005e0 <UsageFault_Handler_C+0xbc>)
 8000552:	f04f 32ff 	mov.w	r2, #4294967295	@ 0xffffffff
 8000556:	609a      	str	r2, [r3, #8]
    g_fault.bfar     = 0xFFFFFFFFU;
 8000558:	4b21      	ldr	r3, [pc, #132]	@ (80005e0 <UsageFault_Handler_C+0xbc>)
 800055a:	f04f 32ff 	mov.w	r2, #4294967295	@ 0xffffffff
 800055e:	60da      	str	r2, [r3, #12]

    if (cfsr & CFSR_DIVBYZERO)
 8000560:	68fb      	ldr	r3, [r7, #12]
 8000562:	f003 7300 	and.w	r3, r3, #33554432	@ 0x2000000
 8000566:	2b00      	cmp	r3, #0
 8000568:	d003      	beq.n	8000572 <UsageFault_Handler_C+0x4e>
    {
        /* SDIV or UDIV with denominator = 0.
         * Only traps when CCR.DIV_0_TRP = 1 (set in MPU_Init).
         * Without that bit, result is 0 and execution continues silently.
         * fault_pc = address of the SDIV/UDIV instruction. */
        g_fault.type = "UsageFault: divide by zero (DIVBYZERO)";
 800056a:	4b1d      	ldr	r3, [pc, #116]	@ (80005e0 <UsageFault_Handler_C+0xbc>)
 800056c:	4a1d      	ldr	r2, [pc, #116]	@ (80005e4 <UsageFault_Handler_C+0xc0>)
 800056e:	619a      	str	r2, [r3, #24]
 8000570:	e02f      	b.n	80005d2 <UsageFault_Handler_C+0xae>
    }
    else if (cfsr & CFSR_UNALIGNED)
 8000572:	68fb      	ldr	r3, [r7, #12]
 8000574:	f003 7380 	and.w	r3, r3, #16777216	@ 0x1000000
 8000578:	2b00      	cmp	r3, #0
 800057a:	d003      	beq.n	8000584 <UsageFault_Handler_C+0x60>
    {
        /* Unaligned word or halfword memory access.
         * Only traps when CCR.UNALIGN_TRP = 1.
         * By default Cortex-M4 handles unaligned accesses transparently.
         * fault_pc = the LDR/STR instruction with the misaligned address. */
        g_fault.type = "UsageFault: unaligned memory access (UNALIGNED)";
 800057c:	4b18      	ldr	r3, [pc, #96]	@ (80005e0 <UsageFault_Handler_C+0xbc>)
 800057e:	4a1a      	ldr	r2, [pc, #104]	@ (80005e8 <UsageFault_Handler_C+0xc4>)
 8000580:	619a      	str	r2, [r3, #24]
 8000582:	e026      	b.n	80005d2 <UsageFault_Handler_C+0xae>
    }
    else if (cfsr & CFSR_NOCP)
 8000584:	68fb      	ldr	r3, [r7, #12]
 8000586:	f403 2300 	and.w	r3, r3, #524288	@ 0x80000
 800058a:	2b00      	cmp	r3, #0
 800058c:	d003      	beq.n	8000596 <UsageFault_Handler_C+0x72>
    {
        /* FPU or other coprocessor instruction when CP10/CP11 not enabled.
         * Fix: SCB->CPACR |= (0xF << 20) in Reset_Handler before main().
         * fault_pc = the VLDR/VADD/VMUL/etc. FPU instruction. */
        g_fault.type = "UsageFault: coprocessor/FPU not enabled — set CPACR (NOCP)";
 800058e:	4b14      	ldr	r3, [pc, #80]	@ (80005e0 <UsageFault_Handler_C+0xbc>)
 8000590:	4a16      	ldr	r2, [pc, #88]	@ (80005ec <UsageFault_Handler_C+0xc8>)
 8000592:	619a      	str	r2, [r3, #24]
 8000594:	e01d      	b.n	80005d2 <UsageFault_Handler_C+0xae>
    }
    else if (cfsr & CFSR_INVPC)
 8000596:	68fb      	ldr	r3, [r7, #12]
 8000598:	f403 2380 	and.w	r3, r3, #262144	@ 0x40000
 800059c:	2b00      	cmp	r3, #0
 800059e:	d003      	beq.n	80005a8 <UsageFault_Handler_C+0x84>
    {
        /* Invalid EXC_RETURN value loaded into PC on exception return.
         * Indicates a corrupted or tampered LR in the exception stack frame.
         * fault_pc = the bad EXC_RETURN value attempted. */
        g_fault.type = "UsageFault: invalid PC on exception return (INVPC)";
 80005a0:	4b0f      	ldr	r3, [pc, #60]	@ (80005e0 <UsageFault_Handler_C+0xbc>)
 80005a2:	4a13      	ldr	r2, [pc, #76]	@ (80005f0 <UsageFault_Handler_C+0xcc>)
 80005a4:	619a      	str	r2, [r3, #24]
 80005a6:	e014      	b.n	80005d2 <UsageFault_Handler_C+0xae>
    }
    else if (cfsr & CFSR_INVSTATE)
 80005a8:	68fb      	ldr	r3, [r7, #12]
 80005aa:	f403 3300 	and.w	r3, r3, #131072	@ 0x20000
 80005ae:	2b00      	cmp	r3, #0
 80005b0:	d003      	beq.n	80005ba <UsageFault_Handler_C+0x96>
    {
        /* CPU tried to execute in ARM state (EPSR.T = 0).
         * Cortex-M4 is Thumb-only — EPSR.T must always be 1.
         * Most common cause: function pointer with LSB cleared (no Thumb bit).
         * fault_pc = the BX/BLX that attempted the ARM-mode switch. */
        g_fault.type = "UsageFault: invalid execution state — check Thumb bit (INVSTATE)";
 80005b2:	4b0b      	ldr	r3, [pc, #44]	@ (80005e0 <UsageFault_Handler_C+0xbc>)
 80005b4:	4a0f      	ldr	r2, [pc, #60]	@ (80005f4 <UsageFault_Handler_C+0xd0>)
 80005b6:	619a      	str	r2, [r3, #24]
 80005b8:	e00b      	b.n	80005d2 <UsageFault_Handler_C+0xae>
    }
    else if (cfsr & CFSR_UNDEFINSTR)
 80005ba:	68fb      	ldr	r3, [r7, #12]
 80005bc:	f403 3380 	and.w	r3, r3, #65536	@ 0x10000
 80005c0:	2b00      	cmp	r3, #0
 80005c2:	d003      	beq.n	80005cc <UsageFault_Handler_C+0xa8>
    {
        /* CPU fetched an opcode it does not recognise.
         * Examples: ARMv8 instructions, compiler bug, intentional UDF.
         * fault_pc = address of the undefined opcode in Flash. */
        g_fault.type = "UsageFault: undefined instruction (UNDEFINSTR)";
 80005c4:	4b06      	ldr	r3, [pc, #24]	@ (80005e0 <UsageFault_Handler_C+0xbc>)
 80005c6:	4a0c      	ldr	r2, [pc, #48]	@ (80005f8 <UsageFault_Handler_C+0xd4>)
 80005c8:	619a      	str	r2, [r3, #24]
 80005ca:	e002      	b.n	80005d2 <UsageFault_Handler_C+0xae>
    }
    else
    {
        g_fault.type = "UsageFault: unknown UFSR bits";
 80005cc:	4b04      	ldr	r3, [pc, #16]	@ (80005e0 <UsageFault_Handler_C+0xbc>)
 80005ce:	4a0b      	ldr	r2, [pc, #44]	@ (80005fc <UsageFault_Handler_C+0xd8>)
 80005d0:	619a      	str	r2, [r3, #24]
    }

    SCB->CFSR = cfsr;   /* write 1 to clear — prevents immediate re-entry */
 80005d2:	4a02      	ldr	r2, [pc, #8]	@ (80005dc <UsageFault_Handler_C+0xb8>)
 80005d4:	68fb      	ldr	r3, [r7, #12]
 80005d6:	6293      	str	r3, [r2, #40]	@ 0x28
    while(1);
 80005d8:	bf00      	nop
 80005da:	e7fd      	b.n	80005d8 <UsageFault_Handler_C+0xb4>
 80005dc:	e000ed00 	.word	0xe000ed00
 80005e0:	2000001c 	.word	0x2000001c
 80005e4:	080009d0 	.word	0x080009d0
 80005e8:	080009f8 	.word	0x080009f8
 80005ec:	08000a28 	.word	0x08000a28
 80005f0:	08000a68 	.word	0x08000a68
 80005f4:	08000a9c 	.word	0x08000a9c
 80005f8:	08000ae0 	.word	0x08000ae0
 80005fc:	08000b10 	.word	0x08000b10

08000600 <UsageFault_Handler>:
}

__attribute__((naked))
void UsageFault_Handler(void)
{
    __asm volatile (
 8000600:	f01e 0f04 	tst.w	lr, #4
 8000604:	bf0c      	ite	eq
 8000606:	f3ef 8008 	mrseq	r0, MSP
 800060a:	f3ef 8009 	mrsne	r0, PSP
 800060e:	f7ff bf89 	b.w	8000524 <UsageFault_Handler_C>
        "ite   eq                   \n"
        "mrseq r0, msp              \n"
        "mrsne r0, psp              \n"
        "b     UsageFault_Handler_C \n"
    );
}
 8000612:	bf00      	nop

08000614 <HardFault_Handler>:
 *  This handler does NOT use a naked trampoline intentionally — it
 *  runs in privileged Handler mode with HFNMIENA=0, so the MPU is
 *  bypassed and direct SCB register access is always safe.
 * =========================================================================== */
void HardFault_Handler(void)
{
 8000614:	b480      	push	{r7}
 8000616:	b083      	sub	sp, #12
 8000618:	af00      	add	r7, sp, #0
    volatile uint32_t hfsr = SCB->HFSR;
 800061a:	4b1e      	ldr	r3, [pc, #120]	@ (8000694 <HardFault_Handler+0x80>)
 800061c:	6adb      	ldr	r3, [r3, #44]	@ 0x2c
 800061e:	607b      	str	r3, [r7, #4]
    volatile uint32_t cfsr = SCB->CFSR;
 8000620:	4b1c      	ldr	r3, [pc, #112]	@ (8000694 <HardFault_Handler+0x80>)
 8000622:	6a9b      	ldr	r3, [r3, #40]	@ 0x28
 8000624:	603b      	str	r3, [r7, #0]

    g_fault.hfsr = hfsr;
 8000626:	687b      	ldr	r3, [r7, #4]
 8000628:	4a1b      	ldr	r2, [pc, #108]	@ (8000698 <HardFault_Handler+0x84>)
 800062a:	6053      	str	r3, [r2, #4]
    g_fault.cfsr = cfsr;
 800062c:	683b      	ldr	r3, [r7, #0]
 800062e:	4a1a      	ldr	r2, [pc, #104]	@ (8000698 <HardFault_Handler+0x84>)
 8000630:	6013      	str	r3, [r2, #0]
    g_fault.mmfar = (cfsr & CFSR_MMARVALID) ? SCB->MMFAR : 0xFFFFFFFFU;
 8000632:	683b      	ldr	r3, [r7, #0]
 8000634:	f003 0380 	and.w	r3, r3, #128	@ 0x80
 8000638:	2b00      	cmp	r3, #0
 800063a:	d002      	beq.n	8000642 <HardFault_Handler+0x2e>
 800063c:	4b15      	ldr	r3, [pc, #84]	@ (8000694 <HardFault_Handler+0x80>)
 800063e:	6b5b      	ldr	r3, [r3, #52]	@ 0x34
 8000640:	e001      	b.n	8000646 <HardFault_Handler+0x32>
 8000642:	f04f 33ff 	mov.w	r3, #4294967295	@ 0xffffffff
 8000646:	4a14      	ldr	r2, [pc, #80]	@ (8000698 <HardFault_Handler+0x84>)
 8000648:	6093      	str	r3, [r2, #8]
    g_fault.bfar  = (cfsr & CFSR_BFARVALID) ? SCB->BFAR  : 0xFFFFFFFFU;
 800064a:	683b      	ldr	r3, [r7, #0]
 800064c:	f403 4300 	and.w	r3, r3, #32768	@ 0x8000
 8000650:	2b00      	cmp	r3, #0
 8000652:	d002      	beq.n	800065a <HardFault_Handler+0x46>
 8000654:	4b0f      	ldr	r3, [pc, #60]	@ (8000694 <HardFault_Handler+0x80>)
 8000656:	6b9b      	ldr	r3, [r3, #56]	@ 0x38
 8000658:	e001      	b.n	800065e <HardFault_Handler+0x4a>
 800065a:	f04f 33ff 	mov.w	r3, #4294967295	@ 0xffffffff
 800065e:	4a0e      	ldr	r2, [pc, #56]	@ (8000698 <HardFault_Handler+0x84>)
 8000660:	60d3      	str	r3, [r2, #12]

    if (hfsr & HFSR_FORCED)
 8000662:	687b      	ldr	r3, [r7, #4]
 8000664:	f003 4380 	and.w	r3, r3, #1073741824	@ 0x40000000
 8000668:	2b00      	cmp	r3, #0
 800066a:	d003      	beq.n	8000674 <HardFault_Handler+0x60>
        /* A lower-priority configurable fault escalated.
         * Inspect g_fault.cfsr for the real root cause:
         *   cfsr & 0x000000FF → MemManage sub-type
         *   cfsr & 0x0000FF00 → BusFault sub-type
         *   cfsr & 0xFFFF0000 → UsageFault sub-type              */
        g_fault.type = "HardFault: escalated from configurable fault — check CFSR";
 800066c:	4b0a      	ldr	r3, [pc, #40]	@ (8000698 <HardFault_Handler+0x84>)
 800066e:	4a0b      	ldr	r2, [pc, #44]	@ (800069c <HardFault_Handler+0x88>)
 8000670:	619a      	str	r2, [r3, #24]
 8000672:	e00c      	b.n	800068e <HardFault_Handler+0x7a>
    }
    else if (hfsr & HFSR_VECTTBL)
 8000674:	687b      	ldr	r3, [r7, #4]
 8000676:	f003 0302 	and.w	r3, r3, #2
 800067a:	2b00      	cmp	r3, #0
 800067c:	d003      	beq.n	8000686 <HardFault_Handler+0x72>
    {
        /* Bus error occurred while reading the vector table.
         * VTOR is pointing to an invalid or uninitialized address.
         * CFSR is not updated for VECTTBL.                        */
        g_fault.type = "HardFault: vector table read error (VECTTBL)";
 800067e:	4b06      	ldr	r3, [pc, #24]	@ (8000698 <HardFault_Handler+0x84>)
 8000680:	4a07      	ldr	r2, [pc, #28]	@ (80006a0 <HardFault_Handler+0x8c>)
 8000682:	619a      	str	r2, [r3, #24]
 8000684:	e003      	b.n	800068e <HardFault_Handler+0x7a>
    }
    else
    {
        g_fault.type = "HardFault: unknown";
 8000686:	4b04      	ldr	r3, [pc, #16]	@ (8000698 <HardFault_Handler+0x84>)
 8000688:	4a06      	ldr	r2, [pc, #24]	@ (80006a4 <HardFault_Handler+0x90>)
 800068a:	619a      	str	r2, [r3, #24]
    }

    while(1);   /* breakpoint here — inspect g_fault, hfsr, cfsr */
 800068c:	bf00      	nop
 800068e:	bf00      	nop
 8000690:	e7fd      	b.n	800068e <HardFault_Handler+0x7a>
 8000692:	bf00      	nop
 8000694:	e000ed00 	.word	0xe000ed00
 8000698:	2000001c 	.word	0x2000001c
 800069c:	08000b30 	.word	0x08000b30
 80006a0:	08000b6c 	.word	0x08000b6c
 80006a4:	08000b9c 	.word	0x08000b9c

080006a8 <test_divbyzero>:
/* --- UsageFault tests --- */

/* UF-1: DIVBYZERO — requires CCR.DIV_0_TRP=1 (set in MPU_Init)
 * CFSR=0x02000000 */
void test_divbyzero(void)
{
 80006a8:	b480      	push	{r7}
 80006aa:	b085      	sub	sp, #20
 80006ac:	af00      	add	r7, sp, #0
    volatile int32_t a = 42, b = 0;
 80006ae:	232a      	movs	r3, #42	@ 0x2a
 80006b0:	60fb      	str	r3, [r7, #12]
 80006b2:	2300      	movs	r3, #0
 80006b4:	60bb      	str	r3, [r7, #8]
    volatile int32_t r = a / b;
 80006b6:	68fa      	ldr	r2, [r7, #12]
 80006b8:	68bb      	ldr	r3, [r7, #8]
 80006ba:	fb92 f3f3 	sdiv	r3, r2, r3
 80006be:	607b      	str	r3, [r7, #4]
    (void)r;
 80006c0:	687b      	ldr	r3, [r7, #4]
}
 80006c2:	bf00      	nop
 80006c4:	3714      	adds	r7, #20
 80006c6:	46bd      	mov	sp, r7
 80006c8:	f85d 7b04 	ldr.w	r7, [sp], #4
 80006cc:	4770      	bx	lr
	...

080006d0 <main>:

/* ===========================================================================
 * main
 * =========================================================================== */
int main(void)
{
 80006d0:	b580      	push	{r7, lr}
 80006d2:	b082      	sub	sp, #8
 80006d4:	af00      	add	r7, sp, #0
    MPU_Init();
 80006d6:	f7ff fdad 	bl	8000234 <MPU_Init>

    RCC_AHB1ENR  |= GPIOBEN;
 80006da:	4b12      	ldr	r3, [pc, #72]	@ (8000724 <main+0x54>)
 80006dc:	681b      	ldr	r3, [r3, #0]
 80006de:	4a11      	ldr	r2, [pc, #68]	@ (8000724 <main+0x54>)
 80006e0:	f043 0302 	orr.w	r3, r3, #2
 80006e4:	6013      	str	r3, [r2, #0]
    GPIOB_MODER  |=  (1U << 28);   /* PB14 output */
 80006e6:	4b10      	ldr	r3, [pc, #64]	@ (8000728 <main+0x58>)
 80006e8:	681b      	ldr	r3, [r3, #0]
 80006ea:	4a0f      	ldr	r2, [pc, #60]	@ (8000728 <main+0x58>)
 80006ec:	f043 5380 	orr.w	r3, r3, #268435456	@ 0x10000000
 80006f0:	6013      	str	r3, [r2, #0]
    GPIOB_MODER  &= ~(1U << 29);
 80006f2:	4b0d      	ldr	r3, [pc, #52]	@ (8000728 <main+0x58>)
 80006f4:	681b      	ldr	r3, [r3, #0]
 80006f6:	4a0c      	ldr	r2, [pc, #48]	@ (8000728 <main+0x58>)
 80006f8:	f023 5300 	bic.w	r3, r3, #536870912	@ 0x20000000
 80006fc:	6013      	str	r3, [r2, #0]
     *   test_invstate()          CFSR=0x00020000
     *   test_undefinstr()        CFSR=0x00010000
     * ========================================================================= */

    /* --- active test --- */
    test_divbyzero();
 80006fe:	f7ff ffd3 	bl	80006a8 <test_divbyzero>
    /* test_invstate();           */
    /* test_undefinstr();         */

    for (;;)
    {
        GPIOB_ODR ^= LED_PIN;
 8000702:	4b0a      	ldr	r3, [pc, #40]	@ (800072c <main+0x5c>)
 8000704:	681b      	ldr	r3, [r3, #0]
 8000706:	4a09      	ldr	r2, [pc, #36]	@ (800072c <main+0x5c>)
 8000708:	f483 4380 	eor.w	r3, r3, #16384	@ 0x4000
 800070c:	6013      	str	r3, [r2, #0]
        for (volatile int i = 0; i < 100000; i++);
 800070e:	2300      	movs	r3, #0
 8000710:	607b      	str	r3, [r7, #4]
 8000712:	e002      	b.n	800071a <main+0x4a>
 8000714:	687b      	ldr	r3, [r7, #4]
 8000716:	3301      	adds	r3, #1
 8000718:	607b      	str	r3, [r7, #4]
 800071a:	687b      	ldr	r3, [r7, #4]
 800071c:	4a04      	ldr	r2, [pc, #16]	@ (8000730 <main+0x60>)
 800071e:	4293      	cmp	r3, r2
 8000720:	ddf8      	ble.n	8000714 <main+0x44>
        GPIOB_ODR ^= LED_PIN;
 8000722:	e7ee      	b.n	8000702 <main+0x32>
 8000724:	40023830 	.word	0x40023830
 8000728:	40020400 	.word	0x40020400
 800072c:	40020414 	.word	0x40020414
 8000730:	0001869f 	.word	0x0001869f

08000734 <Reset_Handler>:

  .section .text.Reset_Handler
  .weak Reset_Handler
  .type Reset_Handler, %function
Reset_Handler:
  ldr   r0, =_estack
 8000734:	480d      	ldr	r0, [pc, #52]	@ (800076c <LoopForever+0x2>)
  mov   sp, r0          /* set stack pointer */
 8000736:	4685      	mov	sp, r0
/* Call the clock system initialization function.*/
  bl  SystemInit
 8000738:	f3af 8000 	nop.w

/* Copy the data segment initializers from flash to SRAM */
  ldr r0, =_sdata
 800073c:	480c      	ldr	r0, [pc, #48]	@ (8000770 <LoopForever+0x6>)
  ldr r1, =_edata
 800073e:	490d      	ldr	r1, [pc, #52]	@ (8000774 <LoopForever+0xa>)
  ldr r2, =_sidata
 8000740:	4a0d      	ldr	r2, [pc, #52]	@ (8000778 <LoopForever+0xe>)
  movs r3, #0
 8000742:	2300      	movs	r3, #0
  b LoopCopyDataInit
 8000744:	e002      	b.n	800074c <LoopCopyDataInit>

08000746 <CopyDataInit>:

CopyDataInit:
  ldr r4, [r2, r3]
 8000746:	58d4      	ldr	r4, [r2, r3]
  str r4, [r0, r3]
 8000748:	50c4      	str	r4, [r0, r3]
  adds r3, r3, #4
 800074a:	3304      	adds	r3, #4

0800074c <LoopCopyDataInit>:

LoopCopyDataInit:
  adds r4, r0, r3
 800074c:	18c4      	adds	r4, r0, r3
  cmp r4, r1
 800074e:	428c      	cmp	r4, r1
  bcc CopyDataInit
 8000750:	d3f9      	bcc.n	8000746 <CopyDataInit>

/* Zero fill the bss segment. */
  ldr r2, =_sbss
 8000752:	4a0a      	ldr	r2, [pc, #40]	@ (800077c <LoopForever+0x12>)
  ldr r4, =_ebss
 8000754:	4c0a      	ldr	r4, [pc, #40]	@ (8000780 <LoopForever+0x16>)
  movs r3, #0
 8000756:	2300      	movs	r3, #0
  b LoopFillZerobss
 8000758:	e001      	b.n	800075e <LoopFillZerobss>

0800075a <FillZerobss>:

FillZerobss:
  str  r3, [r2]
 800075a:	6013      	str	r3, [r2, #0]
  adds r2, r2, #4
 800075c:	3204      	adds	r2, #4

0800075e <LoopFillZerobss>:

LoopFillZerobss:
  cmp r2, r4
 800075e:	42a2      	cmp	r2, r4
  bcc FillZerobss
 8000760:	d3fb      	bcc.n	800075a <FillZerobss>


/* Call static constructors */
  bl __libc_init_array
 8000762:	f000 f811 	bl	8000788 <__libc_init_array>
/* Call the application's entry point.*/

  bl main
 8000766:	f7ff ffb3 	bl	80006d0 <main>

0800076a <LoopForever>:

LoopForever:
  b LoopForever
 800076a:	e7fe      	b.n	800076a <LoopForever>
  ldr   r0, =_estack
 800076c:	20020000 	.word	0x20020000
  ldr r0, =_sdata
 8000770:	20000000 	.word	0x20000000
  ldr r1, =_edata
 8000774:	20000000 	.word	0x20000000
  ldr r2, =_sidata
 8000778:	08000bb8 	.word	0x08000bb8
  ldr r2, =_sbss
 800077c:	20000000 	.word	0x20000000
  ldr r4, =_ebss
 8000780:	20000038 	.word	0x20000038

08000784 <ADC_IRQHandler>:
 * @retval : None
*/
  .section .text.Default_Handler,"ax",%progbits
Default_Handler:
Infinite_Loop:
  b Infinite_Loop
 8000784:	e7fe      	b.n	8000784 <ADC_IRQHandler>
	...

08000788 <__libc_init_array>:
 8000788:	b570      	push	{r4, r5, r6, lr}
 800078a:	4b0d      	ldr	r3, [pc, #52]	@ (80007c0 <__libc_init_array+0x38>)
 800078c:	4d0d      	ldr	r5, [pc, #52]	@ (80007c4 <__libc_init_array+0x3c>)
 800078e:	1b5b      	subs	r3, r3, r5
 8000790:	109c      	asrs	r4, r3, #2
 8000792:	2600      	movs	r6, #0
 8000794:	42a6      	cmp	r6, r4
 8000796:	d109      	bne.n	80007ac <__libc_init_array+0x24>
 8000798:	f000 f81a 	bl	80007d0 <_init>
 800079c:	4d0a      	ldr	r5, [pc, #40]	@ (80007c8 <__libc_init_array+0x40>)
 800079e:	4b0b      	ldr	r3, [pc, #44]	@ (80007cc <__libc_init_array+0x44>)
 80007a0:	1b5b      	subs	r3, r3, r5
 80007a2:	109c      	asrs	r4, r3, #2
 80007a4:	2600      	movs	r6, #0
 80007a6:	42a6      	cmp	r6, r4
 80007a8:	d105      	bne.n	80007b6 <__libc_init_array+0x2e>
 80007aa:	bd70      	pop	{r4, r5, r6, pc}
 80007ac:	f855 3b04 	ldr.w	r3, [r5], #4
 80007b0:	4798      	blx	r3
 80007b2:	3601      	adds	r6, #1
 80007b4:	e7ee      	b.n	8000794 <__libc_init_array+0xc>
 80007b6:	f855 3b04 	ldr.w	r3, [r5], #4
 80007ba:	4798      	blx	r3
 80007bc:	3601      	adds	r6, #1
 80007be:	e7f2      	b.n	80007a6 <__libc_init_array+0x1e>
 80007c0:	08000bb0 	.word	0x08000bb0
 80007c4:	08000bb0 	.word	0x08000bb0
 80007c8:	08000bb0 	.word	0x08000bb0
 80007cc:	08000bb4 	.word	0x08000bb4

080007d0 <_init>:
 80007d0:	b5f8      	push	{r3, r4, r5, r6, r7, lr}
 80007d2:	bf00      	nop
 80007d4:	bcf8      	pop	{r3, r4, r5, r6, r7}
 80007d6:	bc08      	pop	{r3}
 80007d8:	469e      	mov	lr, r3
 80007da:	4770      	bx	lr

080007dc <_fini>:
 80007dc:	b5f8      	push	{r3, r4, r5, r6, r7, lr}
 80007de:	bf00      	nop
 80007e0:	bcf8      	pop	{r3, r4, r5, r6, r7}
 80007e2:	bc08      	pop	{r3}
 80007e4:	469e      	mov	lr, r3
 80007e6:	4770      	bx	lr
